; Function Attrs: mustprogress nofree norecurse nosync nounwind willreturn memory(argmem: readwrite) uwtable
define void @Aig_ObjOrderAdvance(ptr noundef captures(none) initializes((228, 232)) %0) local_unnamed_addr #7 {
  %2 = getelementptr inbounds nuw i8, ptr %0, i64 232
  %3 = load i32, ptr %2, align 8, !tbaa !26
  %4 = getelementptr inbounds nuw i8, ptr %0, i64 228
  store i32 %3, ptr %4, align 4, !tbaa !27
  %5 = getelementptr inbounds nuw i8, ptr %0, i64 240
  %6 = load i32, ptr %5, align 8, !tbaa !34
  %7 = add nsw i32 %6, 1
  store i32 %7, ptr %5, align 8, !tbaa !34
  ret void
}